target datalayout = "e-m:e-p270:32:32-p271:32:32-p272:64:64-i64:64-i128:128-f80:128-n8:16:32:64-S128"
target triple = "x86_64-pc-linux-gnu"

%struct.AVRational = type { i32, i32 }
%struct.AVChannelLayout = type { i32, i32, %union.anon.0, ptr }
%union.anon.0 = type { i64 }
%struct.AVFrame = type { [8 x ptr], [8 x i32], ptr, i32, i32, i32, i32, i32, %struct.AVRational, i64, i64, %struct.AVRational, i32, ptr, i32, i32, [8 x ptr], ptr, i32, ptr, i32, i32, i32, i32, i32, i32, i32, i64, ptr, i32, ptr, ptr, i64, i64, i64, i64, ptr, %struct.AVChannelLayout, i64 }

; Function Attrs: nounwind uwtable
define internal void @extend_edges(ptr noundef %0, i32 noundef %1) #1 {
  %3 = alloca ptr, align 8
  %4 = alloca i32, align 4
  %5 = alloca i32, align 4
  %6 = alloca i32, align 4
  %7 = alloca i32, align 4
  %8 = alloca i32, align 4
  %9 = alloca i32, align 4
  %10 = alloca i32, align 4
  %11 = alloca i32, align 4
  %12 = alloca i32, align 4
  %13 = alloca ptr, align 8
  %14 = alloca i32, align 4
  %15 = alloca i32, align 4
  %16 = alloca i32, align 4
  %17 = alloca i32, align 4
  %18 = alloca i32, align 4
  store ptr %0, ptr %3, align 8, !tbaa !54
  store i32 %1, ptr %4, align 4, !tbaa !44
  call void @llvm.lifetime.start.p0(i64 4, ptr %5) #11
  call void @llvm.lifetime.start.p0(i64 4, ptr %6) #11
  call void @llvm.lifetime.start.p0(i64 4, ptr %7) #11
  store i32 0, ptr %5, align 4, !tbaa !44
  br label %19

19:                                               ; preds = %149, %2
  %20 = load i32, ptr %5, align 4, !tbaa !44
  %21 = icmp slt i32 %20, 3
  br i1 %21, label %22, label %152

22:                                               ; preds = %19
  call void @llvm.lifetime.start.p0(i64 4, ptr %8) #11
  %23 = load i32, ptr %5, align 4, !tbaa !44
  %24 = icmp sgt i32 %23, 0
  %25 = zext i1 %24 to i32
  store i32 %25, ptr %8, align 4, !tbaa !44
  call void @llvm.lifetime.start.p0(i64 4, ptr %9) #11
  %26 = load ptr, ptr %3, align 8, !tbaa !54
  %27 = getelementptr inbounds nuw %struct.AVFrame, ptr %26, i32 0, i32 3
  %28 = load i32, ptr %27, align 8, !tbaa !111
  %29 = load i32, ptr %8, align 4, !tbaa !44
  %30 = ashr i32 %28, %29
  store i32 %30, ptr %9, align 4, !tbaa !44
  call void @llvm.lifetime.start.p0(i64 4, ptr %10) #11
  %31 = load ptr, ptr %3, align 8, !tbaa !54
  %32 = getelementptr inbounds nuw %struct.AVFrame, ptr %31, i32 0, i32 4
  %33 = load i32, ptr %32, align 4, !tbaa !112
  %34 = load i32, ptr %8, align 4, !tbaa !44
  %35 = ashr i32 %33, %34
  store i32 %35, ptr %10, align 4, !tbaa !44
  call void @llvm.lifetime.start.p0(i64 4, ptr %11) #11
  %36 = load i32, ptr %5, align 4, !tbaa !44
  %37 = icmp eq i32 %36, 0
  br i1 %37, label %38, label %40

38:                                               ; preds = %22
  %39 = load i32, ptr %4, align 4, !tbaa !44
  br label %43

40:                                               ; preds = %22
  %41 = load i32, ptr %4, align 4, !tbaa !44
  %42 = ashr i32 %41, 1
  br label %43

43:                                               ; preds = %40, %38
  %44 = phi i32 [ %39, %38 ], [ %42, %40 ]
  store i32 %44, ptr %11, align 4, !tbaa !44
  call void @llvm.lifetime.start.p0(i64 4, ptr %12) #11
  %45 = load ptr, ptr %3, align 8, !tbaa !54
  %46 = getelementptr inbounds nuw %struct.AVFrame, ptr %45, i32 0, i32 1
  %47 = load i32, ptr %5, align 4, !tbaa !44
  %48 = sext i32 %47 to i64
  %49 = getelementptr inbounds [8 x i32], ptr %46, i64 0, i64 %48
  %50 = load i32, ptr %49, align 4, !tbaa !44
  store i32 %50, ptr %12, align 4, !tbaa !44
  call void @llvm.lifetime.start.p0(i64 8, ptr %13) #11
  %51 = load ptr, ptr %3, align 8, !tbaa !54
  %52 = getelementptr inbounds nuw %struct.AVFrame, ptr %51, i32 0, i32 0
  %53 = load i32, ptr %5, align 4, !tbaa !44
  %54 = sext i32 %53 to i64
  %55 = getelementptr inbounds [8 x ptr], ptr %52, i64 0, i64 %54
  %56 = load ptr, ptr %55, align 8, !tbaa !60
  store ptr %56, ptr %13, align 8, !tbaa !60
  call void @llvm.lifetime.start.p0(i64 4, ptr %14) #11
  %57 = load i32, ptr %11, align 4, !tbaa !44
  %58 = load i32, ptr %9, align 4, !tbaa !44
  %59 = load i32, ptr %11, align 4, !tbaa !44
  %60 = sub nsw i32 %59, 1
  %61 = and i32 %58, %60
  %62 = sub nsw i32 %57, %61
  store i32 %62, ptr %14, align 4, !tbaa !44
  call void @llvm.lifetime.start.p0(i64 4, ptr %15) #11
  %63 = load i32, ptr %11, align 4, !tbaa !44
  %64 = load i32, ptr %10, align 4, !tbaa !44
  %65 = load i32, ptr %11, align 4, !tbaa !44
  %66 = sub nsw i32 %65, 1
  %67 = and i32 %64, %66
  %68 = sub nsw i32 %63, %67
  store i32 %68, ptr %15, align 4, !tbaa !44
  %69 = load i32, ptr %14, align 4, !tbaa !44
  %70 = load i32, ptr %11, align 4, !tbaa !44
  %71 = icmp eq i32 %69, %70
  br i1 %71, label %72, label %77

72:                                               ; preds = %43
  %73 = load i32, ptr %15, align 4, !tbaa !44
  %74 = load i32, ptr %11, align 4, !tbaa !44
  %75 = icmp eq i32 %73, %74
  br i1 %75, label %76, label %77

76:                                               ; preds = %72
  store i32 1, ptr %16, align 4
  br label %146

77:                                               ; preds = %72, %43
  %78 = load i32, ptr %14, align 4, !tbaa !44
  %79 = load i32, ptr %11, align 4, !tbaa !44
  %80 = icmp ne i32 %78, %79
  br i1 %80, label %81, label %110

81:                                               ; preds = %77
  call void @llvm.lifetime.start.p0(i64 4, ptr %17) #11
  %82 = load i32, ptr %9, align 4, !tbaa !44
  store i32 %82, ptr %17, align 4, !tbaa !44
  store i32 0, ptr %7, align 4, !tbaa !44
  br label %83

83:                                               ; preds = %106, %81
  %84 = load i32, ptr %7, align 4, !tbaa !44
  %85 = load i32, ptr %10, align 4, !tbaa !44
  %86 = icmp slt i32 %84, %85
  br i1 %86, label %87, label %109

87:                                               ; preds = %83
  store i32 0, ptr %6, align 4, !tbaa !44
  br label %88

88:                                               ; preds = %99, %87
  %89 = load i32, ptr %6, align 4, !tbaa !44
  %90 = load i32, ptr %14, align 4, !tbaa !44
  %91 = icmp slt i32 %89, %90
  br i1 %91, label %92, label %102

92:                                               ; preds = %88
  %93 = load ptr, ptr %13, align 8, !tbaa !60
  %94 = load i32, ptr %17, align 4, !tbaa !44
  %95 = load i32, ptr %6, align 4, !tbaa !44
  %96 = add nsw i32 %94, %95
  %97 = sext i32 %96 to i64
  %98 = getelementptr inbounds i8, ptr %93, i64 %97
  store i8 -128, ptr %98, align 1, !tbaa !33
  br label %99

99:                                               ; preds = %92
  %100 = load i32, ptr %6, align 4, !tbaa !44
  %101 = add nsw i32 %100, 1
  store i32 %101, ptr %6, align 4, !tbaa !44
  br label %88, !llvm.loop !113

102:                                              ; preds = %88
  %103 = load i32, ptr %12, align 4, !tbaa !44
  %104 = load i32, ptr %17, align 4, !tbaa !44
  %105 = add nsw i32 %104, %103
  store i32 %105, ptr %17, align 4, !tbaa !44
  br label %106

106:                                              ; preds = %102
  %107 = load i32, ptr %7, align 4, !tbaa !44
  %108 = add nsw i32 %107, 1
  store i32 %108, ptr %7, align 4, !tbaa !44
  br label %83, !llvm.loop !114

109:                                              ; preds = %83
  call void @llvm.lifetime.end.p0(i64 4, ptr %17) #11
  br label %110

110:                                              ; preds = %109, %77
  %111 = load i32, ptr %15, align 4, !tbaa !44
  %112 = load i32, ptr %11, align 4, !tbaa !44
  %113 = icmp ne i32 %111, %112
  br i1 %113, label %114, label %145

114:                                              ; preds = %110
  call void @llvm.lifetime.start.p0(i64 4, ptr %18) #11
  %115 = load i32, ptr %10, align 4, !tbaa !44
  %116 = load i32, ptr %12, align 4, !tbaa !44
  %117 = mul nsw i32 %115, %116
  store i32 %117, ptr %18, align 4, !tbaa !44
  store i32 0, ptr %7, align 4, !tbaa !44
  br label %118

118:                                              ; preds = %141, %114
  %119 = load i32, ptr %7, align 4, !tbaa !44
  %120 = load i32, ptr %15, align 4, !tbaa !44
  %121 = icmp slt i32 %119, %120
  br i1 %121, label %122, label %144

122:                                              ; preds = %118
  store i32 0, ptr %6, align 4, !tbaa !44
  br label %123

123:                                              ; preds = %134, %122
  %124 = load i32, ptr %6, align 4, !tbaa !44
  %125 = load i32, ptr %12, align 4, !tbaa !44
  %126 = icmp slt i32 %124, %125
  br i1 %126, label %127, label %137

127:                                              ; preds = %123
  %128 = load ptr, ptr %13, align 8, !tbaa !60
  %129 = load i32, ptr %18, align 4, !tbaa !44
  %130 = load i32, ptr %6, align 4, !tbaa !44
  %131 = add nsw i32 %129, %130
  %132 = sext i32 %131 to i64
  %133 = getelementptr inbounds i8, ptr %128, i64 %132
  store i8 -128, ptr %133, align 1, !tbaa !33
  br label %134

134:                                              ; preds = %127
  %135 = load i32, ptr %6, align 4, !tbaa !44
  %136 = add nsw i32 %135, 1
  store i32 %136, ptr %6, align 4, !tbaa !44
  br label %123, !llvm.loop !115

137:                                              ; preds = %123
  %138 = load i32, ptr %12, align 4, !tbaa !44
  %139 = load i32, ptr %18, align 4, !tbaa !44
  %140 = add nsw i32 %139, %138
  store i32 %140, ptr %18, align 4, !tbaa !44
  br label %141

141:                                              ; preds = %137
  %142 = load i32, ptr %7, align 4, !tbaa !44
  %143 = add nsw i32 %142, 1
  store i32 %143, ptr %7, align 4, !tbaa !44
  br label %118, !llvm.loop !116

144:                                              ; preds = %118
  call void @llvm.lifetime.end.p0(i64 4, ptr %18) #11
  br label %145

145:                                              ; preds = %144, %110
  store i32 0, ptr %16, align 4
  br label %146

146:                                              ; preds = %145, %76
  call void @llvm.lifetime.end.p0(i64 4, ptr %15) #11
  call void @llvm.lifetime.end.p0(i64 4, ptr %14) #11
  call void @llvm.lifetime.end.p0(i64 8, ptr %13) #11
  call void @llvm.lifetime.end.p0(i64 4, ptr %12) #11
  call void @llvm.lifetime.end.p0(i64 4, ptr %11) #11
  call void @llvm.lifetime.end.p0(i64 4, ptr %10) #11
  call void @llvm.lifetime.end.p0(i64 4, ptr %9) #11
  call void @llvm.lifetime.end.p0(i64 4, ptr %8) #11
  %147 = load i32, ptr %16, align 4
  switch i32 %147, label %153 [
    i32 0, label %148
  ]

148:                                              ; preds = %146
  br label %149

149:                                              ; preds = %148
  %150 = load i32, ptr %5, align 4, !tbaa !44
  %151 = add nsw i32 %150, 1
  store i32 %151, ptr %5, align 4, !tbaa !44
  br label %19, !llvm.loop !117

152:                                              ; preds = %19
  store i32 0, ptr %16, align 4
  br label %153

153:                                              ; preds = %152, %146
  call void @llvm.lifetime.end.p0(i64 4, ptr %7) #11
  call void @llvm.lifetime.end.p0(i64 4, ptr %6) #11
  call void @llvm.lifetime.end.p0(i64 4, ptr %5) #11
  %154 = load i32, ptr %16, align 4
  switch i32 %154, label %156 [
    i32 0, label %155
    i32 1, label %155
  ]

155:                                              ; preds = %153, %153
  ret void

156:                                              ; preds = %153
  unreachable
}