; Function Attrs: nofree norecurse nosync nounwind memory(write, argmem: readwrite, inaccessiblemem: none) uwtable
define internal fastcc void @extend_edges(ptr noundef readonly captures(none) %0, i32 noundef %1) unnamed_addr #5 {
  %3 = getelementptr inbounds nuw i8, ptr %0, i64 104
  %4 = getelementptr inbounds nuw i8, ptr %0, i64 108
  %5 = getelementptr inbounds nuw i8, ptr %0, i64 64
  br label %6

6:                                                ; preds = %2, %.loopexit
  %indvars.iv = phi i64 [ 0, %2 ], [ %indvars.iv.next, %.loopexit ]
  %7 = icmp ne i64 %indvars.iv, 0
  %8 = zext i1 %7 to i32
  %9 = load i32, ptr %3, align 8, !tbaa !82
  %10 = ashr i32 %9, %8
  %11 = load i32, ptr %4, align 4, !tbaa !83
  %12 = ashr i32 %11, %8
  %13 = ashr i32 %1, %8
  %14 = getelementptr inbounds nuw [8 x i32], ptr %5, i64 0, i64 %indvars.iv
  %15 = load i32, ptr %14, align 4, !tbaa !54
  %16 = getelementptr inbounds nuw [8 x ptr], ptr %0, i64 0, i64 %indvars.iv
  %17 = load ptr, ptr %16, align 8, !tbaa !76
  %18 = add nsw i32 %13, -1
  %19 = and i32 %10, %18
  %20 = sub i32 %13, %19
  %21 = and i32 %12, %18
  %22 = sub i32 %13, %21
  %23 = icmp eq i32 %19, 0
  %24 = icmp eq i32 %21, 0
  %or.cond = select i1 %23, i1 %24, i1 false
  br i1 %or.cond, label %.critedge, label %25

25:                                               ; preds = %6
  %26 = icmp sgt i32 %12, 0
  %not. = xor i1 %23, true
  %or.cond75.not = select i1 %not., i1 %26, i1 false
  %27 = icmp sgt i32 %20, 0
  %or.cond89 = and i1 %or.cond75.not, %27
  br i1 %or.cond89, label %.preheader64.us.preheader, label %.loopexit66

.preheader64.us.preheader:                        ; preds = %25
  %28 = sext i32 %10 to i64
  %29 = sext i32 %15 to i64
  %30 = zext nneg i32 %20 to i64
  %wide.trip.count = zext nneg i32 %12 to i64
  %invariant.gep = getelementptr i8, ptr %17, i64 %28
  br label %.preheader64.us

.preheader64.us:                                  ; preds = %.preheader64.us.preheader, %.preheader64.us
  %indvar = phi i64 [ 0, %.preheader64.us.preheader ], [ %indvar.next, %.preheader64.us ]
  %31 = mul i64 %indvar, %29
  %gep = getelementptr i8, ptr %invariant.gep, i64 %31
  tail call void @llvm.memset.p0.i64(ptr align 1 %gep, i8 -128, i64 %30, i1 false), !tbaa !29
  %indvar.next = add nuw nsw i64 %indvar, 1
  %exitcond.not = icmp eq i64 %indvar.next, %wide.trip.count
  br i1 %exitcond.not, label %.loopexit66, label %.preheader64.us, !llvm.loop !84

.loopexit66:                                      ; preds = %.preheader64.us, %25
  %.not = xor i1 %24, true
  %32 = icmp sgt i32 %22, 0
  %or.cond90 = and i1 %32, %.not
  %33 = icmp sgt i32 %15, 0
  %or.cond91 = select i1 %or.cond90, i1 %33, i1 false
  br i1 %or.cond91, label %.preheader.us.preheader, label %.loopexit

.preheader.us.preheader:                          ; preds = %.loopexit66
  %34 = mul i32 %12, %15
  %35 = sext i32 %34 to i64
  %36 = zext nneg i32 %15 to i64
  %scevgep85 = getelementptr i8, ptr %17, i64 %35
  %37 = zext nneg i32 %22 to i64
  %38 = mul nuw nsw i64 %36, %37
  tail call void @llvm.memset.p0.i64(ptr align 1 %scevgep85, i8 -128, i64 %38, i1 false), !tbaa !29
  br label %.loopexit

.loopexit:                                        ; preds = %.preheader.us.preheader, %.loopexit66
  %indvars.iv.next = add nuw nsw i64 %indvars.iv, 1
  %exitcond88.not = icmp eq i64 %indvars.iv.next, 3
  br i1 %exitcond88.not, label %.critedge, label %6, !llvm.loop !85

.critedge:                                        ; preds = %6, %.loopexit
  ret void
}